; Function Attrs: mustprogress uwtable
define void @_ZN17RichParameterList21setAllValuesAsDefaultEv(ptr noundef nonnull readonly align 8 dereferenceable(24) %0) local_unnamed_addr #9 align 2 {
  %.sroa.04.07 = load ptr, ptr %0, align 8
  %.not8 = icmp eq ptr %.sroa.04.07, %0
  br i1 %.not8, label %._crit_edge, label %.lr.ph

.lr.ph:                                           ; preds = %1, %.lr.ph
  %.sroa.04.09 = phi ptr [ %.sroa.04.0, %.lr.ph ], [ %.sroa.04.07, %1 ]
  %2 = getelementptr inbounds i8, ptr %.sroa.04.09, i64 16
  %3 = load ptr, ptr %2, align 8
  tail call void @_ZN13RichParameter15setDefaultValueEb(ptr noundef nonnull align 8 dereferenceable(56) %3, i1 noundef zeroext true)
  %.sroa.04.0 = load ptr, ptr %.sroa.04.09, align 8
  %.not = icmp eq ptr %.sroa.04.0, %0
  br i1 %.not, label %._crit_edge, label %.lr.ph

._crit_edge:                                      ; preds = %.lr.ph, %1
  ret void
}